CCS PCH C Compiler, Version 5.015, 5967               29-Oca-22 16:39

               Filename:   C:\Users\Onur\Desktop\BLDC ESC\Atmega Kod Denemeler\04_DutyCycle-Okuma\50 Hz PWM Pic16f877\50hz_pwm.lst

               ROM used:   970 bytes (3%)
                           Largest free fragment is 31798
               RAM used:   6 (0%) at main() level
                           22 (1%) worst case
               Stack used: 1 locations
               Stack size: 31

*
0000:  GOTO   030C
.................... /* 
.................... * bldc reciver sinyalini test etmek için oluþturulan 250hz pwm sinyal kodu.  
.................... * analog potansiyometre ile kontrol edilmektedir.  
.................... *  
.................... * 
.................... *    !!!! OSIALTOR FREKANSI GÜNCELLENDÝ KODU TEKRAR KONTROL ET VE YÜKLE !!!! 
.................... */ 
....................  
.................... #include<18f4550.h> 
.................... //////////// Standard Header file for the PIC18F4550 device //////////////// 
.................... /////////////////////////////////////////////////////////////////////////// 
.................... ////        (C) Copyright 1996, 2013 Custom Computer Services          //// 
.................... //// This source code may only be used by licensed users of the CCS C  //// 
.................... //// compiler.  This source code may only be distributed to other      //// 
.................... //// licensed users of the CCS C compiler.  No other use, reproduction //// 
.................... //// or distribution is permitted without written permission.          //// 
.................... //// Derivative programs created using this software in object code    //// 
.................... //// form are not restricted in any way.                               //// 
.................... /////////////////////////////////////////////////////////////////////////// 
.................... #device PIC18F4550 
0004:  MOVF   06,W
0006:  CLRF   01
0008:  SUBWF  05,W
000A:  BC    0012
000C:  MOVFF  05,00
0010:  BRA    002A
0012:  CLRF   00
0014:  MOVLW  08
0016:  MOVWF  07
0018:  RLCF   05,F
001A:  RLCF   00,F
001C:  MOVF   06,W
001E:  SUBWF  00,W
0020:  BTFSC  FD8.0
0022:  MOVWF  00
0024:  RLCF   01,F
0026:  DECFSZ 07,F
0028:  BRA    0018
002A:  GOTO   0380 (RETURN)
002E:  MOVLW  8E
0030:  MOVWF  00
0032:  MOVFF  07,01
0036:  MOVFF  06,02
003A:  CLRF   03
003C:  MOVF   01,F
003E:  BNZ   0052
0040:  MOVFF  02,01
0044:  CLRF   02
0046:  MOVLW  08
0048:  SUBWF  00,F
004A:  MOVF   01,F
004C:  BNZ   0052
004E:  CLRF   00
0050:  BRA    0062
0052:  BCF    FD8.0
0054:  BTFSC  01.7
0056:  BRA    0060
0058:  RLCF   02,F
005A:  RLCF   01,F
005C:  DECF   00,F
005E:  BRA    0052
0060:  BCF    01.7
0062:  GOTO   0388 (RETURN)
0066:  MOVLW  80
0068:  BTFSC  FD8.1
006A:  XORWF  0B,F
006C:  CLRF   10
006E:  CLRF   11
0070:  MOVFF  07,0F
0074:  MOVF   0B,W
0076:  XORWF  0F,F
0078:  MOVF   06,W
007A:  BTFSC  FD8.2
007C:  BRA    0236
007E:  MOVWF  0E
0080:  MOVWF  00
0082:  MOVF   0A,W
0084:  BTFSC  FD8.2
0086:  BRA    0248
0088:  SUBWF  0E,F
008A:  BTFSC  FD8.2
008C:  BRA    0190
008E:  BNC   010A
0090:  MOVFF  0B,14
0094:  BSF    14.7
0096:  MOVFF  0C,13
009A:  MOVFF  0D,12
009E:  CLRF   11
00A0:  BCF    FD8.0
00A2:  RRCF   14,F
00A4:  RRCF   13,F
00A6:  RRCF   12,F
00A8:  RRCF   11,F
00AA:  DECFSZ 0E,F
00AC:  BRA    009E
00AE:  BTFSS  0F.7
00B0:  BRA    00B8
00B2:  BSF    10.0
00B4:  BRA    0270
00B6:  BCF    10.0
00B8:  BCF    0E.0
00BA:  BSF    10.4
00BC:  CLRF   FEA
00BE:  MOVLW  09
00C0:  MOVWF  FE9
00C2:  BRA    0296
00C4:  BCF    10.4
00C6:  BTFSC  0F.7
00C8:  BRA    00DE
00CA:  BTFSS  0E.0
00CC:  BRA    00F4
00CE:  RRCF   14,F
00D0:  RRCF   13,F
00D2:  RRCF   12,F
00D4:  RRCF   11,F
00D6:  INCF   00,F
00D8:  BTFSC  FD8.2
00DA:  BRA    0266
00DC:  BRA    00F4
00DE:  BTFSC  14.7
00E0:  BRA    00FA
00E2:  BCF    FD8.0
00E4:  RLCF   11,F
00E6:  RLCF   12,F
00E8:  RLCF   13,F
00EA:  RLCF   14,F
00EC:  DECF   00,F
00EE:  BTFSC  FD8.2
00F0:  BRA    0266
00F2:  BRA    00DE
00F4:  BSF    10.6
00F6:  BRA    01CE
00F8:  BCF    10.6
00FA:  MOVFF  07,0F
00FE:  BTFSS  07.7
0100:  BRA    0106
0102:  BSF    14.7
0104:  BRA    0258
0106:  BCF    14.7
0108:  BRA    0258
010A:  MOVFF  0A,0E
010E:  MOVFF  0A,00
0112:  MOVF   06,W
0114:  SUBWF  0E,F
0116:  MOVFF  07,14
011A:  BSF    14.7
011C:  MOVFF  08,13
0120:  MOVFF  09,12
0124:  CLRF   11
0126:  BCF    FD8.0
0128:  RRCF   14,F
012A:  RRCF   13,F
012C:  RRCF   12,F
012E:  RRCF   11,F
0130:  DECFSZ 0E,F
0132:  BRA    0124
0134:  BTFSS  0F.7
0136:  BRA    013E
0138:  BSF    10.1
013A:  BRA    0270
013C:  BCF    10.1
013E:  BCF    0E.0
0140:  BSF    10.5
0142:  CLRF   FEA
0144:  MOVLW  0D
0146:  MOVWF  FE9
0148:  BRA    0296
014A:  BCF    10.5
014C:  BTFSC  0F.7
014E:  BRA    0164
0150:  BTFSS  0E.0
0152:  BRA    017A
0154:  RRCF   14,F
0156:  RRCF   13,F
0158:  RRCF   12,F
015A:  RRCF   11,F
015C:  INCF   00,F
015E:  BTFSC  FD8.2
0160:  BRA    0266
0162:  BRA    017A
0164:  BTFSC  14.7
0166:  BRA    0180
0168:  BCF    FD8.0
016A:  RLCF   11,F
016C:  RLCF   12,F
016E:  RLCF   13,F
0170:  RLCF   14,F
0172:  DECF   00,F
0174:  BTFSC  FD8.2
0176:  BRA    0266
0178:  BRA    0164
017A:  BSF    10.7
017C:  BRA    01CE
017E:  BCF    10.7
0180:  MOVFF  0B,0F
0184:  BTFSS  0B.7
0186:  BRA    018C
0188:  BSF    14.7
018A:  BRA    0258
018C:  BCF    14.7
018E:  BRA    0258
0190:  MOVFF  0B,14
0194:  BSF    14.7
0196:  MOVFF  0C,13
019A:  MOVFF  0D,12
019E:  BTFSS  0F.7
01A0:  BRA    01AA
01A2:  BCF    14.7
01A4:  BSF    10.2
01A6:  BRA    0270
01A8:  BCF    10.2
01AA:  CLRF   11
01AC:  BCF    0E.0
01AE:  CLRF   FEA
01B0:  MOVLW  09
01B2:  MOVWF  FE9
01B4:  BRA    0296
01B6:  BTFSC  0F.7
01B8:  BRA    01F2
01BA:  MOVFF  07,0F
01BE:  BTFSS  0E.0
01C0:  BRA    01CE
01C2:  RRCF   14,F
01C4:  RRCF   13,F
01C6:  RRCF   12,F
01C8:  RRCF   11,F
01CA:  INCF   00,F
01CC:  BZ    0266
01CE:  BTFSS  11.7
01D0:  BRA    01E8
01D2:  INCF   12,F
01D4:  BNZ   01E8
01D6:  INCF   13,F
01D8:  BNZ   01E8
01DA:  INCF   14,F
01DC:  BNZ   01E8
01DE:  RRCF   14,F
01E0:  RRCF   13,F
01E2:  RRCF   12,F
01E4:  INCF   00,F
01E6:  BZ    0266
01E8:  BTFSC  10.6
01EA:  BRA    00F8
01EC:  BTFSC  10.7
01EE:  BRA    017E
01F0:  BRA    022A
01F2:  MOVLW  80
01F4:  XORWF  14,F
01F6:  BTFSS  14.7
01F8:  BRA    0202
01FA:  BRA    0270
01FC:  MOVFF  0B,0F
0200:  BRA    0216
0202:  MOVFF  07,0F
0206:  MOVF   14,F
0208:  BNZ   0216
020A:  MOVF   13,F
020C:  BNZ   0216
020E:  MOVF   12,F
0210:  BNZ   0216
0212:  CLRF   00
0214:  BRA    0258
0216:  BTFSC  14.7
0218:  BRA    022A
021A:  BCF    FD8.0
021C:  RLCF   11,F
021E:  RLCF   12,F
0220:  RLCF   13,F
0222:  RLCF   14,F
0224:  DECFSZ 00,F
0226:  BRA    0216
0228:  BRA    0266
022A:  BTFSS  0F.7
022C:  BRA    0232
022E:  BSF    14.7
0230:  BRA    0258
0232:  BCF    14.7
0234:  BRA    0258
0236:  MOVFF  0A,00
023A:  MOVFF  0B,14
023E:  MOVFF  0C,13
0242:  MOVFF  0D,12
0246:  BRA    0258
0248:  MOVFF  06,00
024C:  MOVFF  07,14
0250:  MOVFF  08,13
0254:  MOVFF  09,12
0258:  MOVFF  14,01
025C:  MOVFF  13,02
0260:  MOVFF  12,03
0264:  BRA    02CE
0266:  CLRF   00
0268:  CLRF   01
026A:  CLRF   02
026C:  CLRF   03
026E:  BRA    02CE
0270:  CLRF   11
0272:  COMF   12,F
0274:  COMF   13,F
0276:  COMF   14,F
0278:  COMF   11,F
027A:  INCF   11,F
027C:  BNZ   0288
027E:  INCF   12,F
0280:  BNZ   0288
0282:  INCF   13,F
0284:  BNZ   0288
0286:  INCF   14,F
0288:  BTFSC  10.0
028A:  BRA    00B6
028C:  BTFSC  10.1
028E:  BRA    013C
0290:  BTFSC  10.2
0292:  BRA    01A8
0294:  BRA    01FC
0296:  MOVF   FEF,W
0298:  ADDWF  12,F
029A:  BNC   02A6
029C:  INCF   13,F
029E:  BNZ   02A6
02A0:  INCF   14,F
02A2:  BTFSC  FD8.2
02A4:  BSF    0E.0
02A6:  MOVF   FED,F
02A8:  MOVF   FEF,W
02AA:  ADDWF  13,F
02AC:  BNC   02B4
02AE:  INCF   14,F
02B0:  BTFSC  FD8.2
02B2:  BSF    0E.0
02B4:  MOVF   FED,F
02B6:  MOVF   FEF,W
02B8:  BTFSC  FEF.7
02BA:  BRA    02BE
02BC:  XORLW  80
02BE:  ADDWF  14,F
02C0:  BTFSC  FD8.0
02C2:  BSF    0E.0
02C4:  BTFSC  10.4
02C6:  BRA    00C4
02C8:  BTFSC  10.5
02CA:  BRA    014A
02CC:  BRA    01B6
02CE:  GOTO   03AC (RETURN)
02D2:  MOVLW  8E
02D4:  MOVWF  00
02D6:  MOVF   05,W
02D8:  SUBWF  00,F
02DA:  MOVFF  06,02
02DE:  MOVFF  07,01
02E2:  BSF    02.7
02E4:  MOVF   00,F
02E6:  BZ    02FA
02E8:  BCF    FD8.0
02EA:  MOVF   02,F
02EC:  BNZ   02F2
02EE:  MOVF   01,F
02F0:  BZ    02FA
02F2:  RRCF   02,F
02F4:  RRCF   01,F
02F6:  DECFSZ 00,F
02F8:  BRA    02E8
02FA:  BTFSS  06.7
02FC:  BRA    0308
02FE:  COMF   01,F
0300:  COMF   02,F
0302:  INCF   01,F
0304:  BTFSC  FD8.2
0306:  INCF   02,F
0308:  GOTO   03BE (RETURN)
....................  
.................... #list 
....................  
.................... #device ADC=8 
.................... #use delay(clock=500KHz) 
.................... #fuses intrc,cpudiv1,nolvp,nobrownout,intrc_io 
.................... #define PWM_MIN 12   // 1ms 1000us 
.................... #define PWM_MAX 25   // 2ms 2000us 
....................  
.................... unsigned int deger=0; 
....................  
....................  
.................... void main(){ 
030C:  CLRF   FF8
030E:  BCF    FD0.7
0310:  CLRF   04
0312:  MOVF   FC1,W
0314:  ANDLW  C0
0316:  IORLW  0F
0318:  MOVWF  FC1
031A:  MOVLW  07
031C:  MOVWF  FB4
....................  
.................... setup_oscillator(OSC_500KHZ); 
031E:  MOVLW  30
0320:  MOVWF  FD3
0322:  MOVF   FD3,W
.................... set_tris_a(0x01); 
0324:  MOVLW  01
0326:  MOVWF  F92
.................... set_tris_c(0x00); 
0328:  MOVLW  00
032A:  MOVWF  F94
.................... output_c(0x00); 
032C:  CLRF   F94
032E:  CLRF   F8B
.................... setup_adc(ADC_CLOCK_INTERNAL); 
0330:  MOVF   FC0,W
0332:  ANDLW  C0
0334:  IORLW  07
0336:  MOVWF  FC0
0338:  BCF    FC0.7
033A:  BSF    FC2.0
.................... setup_adc_ports(AN0); 
033C:  MOVF   FC1,W
033E:  ANDLW  C0
0340:  IORLW  0E
0342:  MOVWF  FC1
.................... setup_ccp2(CCP_PWM); 
0344:  BCF    F94.1
0346:  BCF    F8B.1
0348:  MOVLW  0C
034A:  MOVWF  FBA
.................... setup_timer_2(T2_DIV_BY_16,156,1) ; // 50hz pwm  
034C:  MOVLW  00
034E:  IORLW  06
0350:  MOVWF  FCA
0352:  MOVLW  9C
0354:  MOVWF  FCB
.................... set_pwm2_duty(PWM_MIN); 
0356:  MOVLW  0C
0358:  MOVWF  FBB
....................  
....................  
....................  
....................  
....................    while(true){ 
....................        
....................       set_adc_channel(0); 
035A:  MOVLW  00
035C:  MOVWF  01
035E:  MOVF   FC2,W
0360:  ANDLW  C3
0362:  IORWF  01,W
0364:  MOVWF  FC2
....................       delay_us(50); 
0366:  BRA    0368
0368:  BRA    036A
036A:  BRA    036C
....................       deger=read_adc(); 
036C:  BSF    FC2.1
036E:  BTFSC  FC2.1
0370:  BRA    036E
0372:  MOVFF  FC4,04
....................       deger=(deger/33)+7.8; 
0376:  MOVFF  04,05
037A:  MOVLW  21
037C:  MOVWF  06
037E:  BRA    0004
0380:  CLRF   07
0382:  MOVFF  01,06
0386:  BRA    002E
0388:  BCF    FD8.1
038A:  MOVFF  03,09
038E:  MOVFF  02,08
0392:  MOVFF  01,07
0396:  MOVFF  00,06
039A:  MOVLW  9A
039C:  MOVWF  0D
039E:  MOVLW  99
03A0:  MOVWF  0C
03A2:  MOVLW  79
03A4:  MOVWF  0B
03A6:  MOVLW  81
03A8:  MOVWF  0A
03AA:  BRA    0066
03AC:  MOVFF  03,08
03B0:  MOVFF  02,07
03B4:  MOVFF  01,06
03B8:  MOVFF  00,05
03BC:  BRA    02D2
03BE:  MOVFF  01,04
....................       set_pwm2_duty(deger); 
03C2:  MOVFF  04,FBB
03C6:  BRA    035A
....................        
....................        
....................     
....................    } 
....................  
.................... } 
03C8:  SLEEP 

Configuration Fuses:
   Word  1: C827   PLL12 CPUDIV1 USBDIV INTRC_IO FCMEN IESO
   Word  2: 1E38   PUT NOBROWNOUT BORV21 VREGEN NOWDT WDT32768
   Word  3: 8700   CCP2C1 PBADEN LPT1OSC MCLR
   Word  4: 00A1   STVREN NOLVP ICSP2 NOXINST NODEBUG
   Word  5: C00F   NOPROTECT NOCPB NOCPD
   Word  6: E00F   NOWRT NOWRTC NOWRTB NOWRTD
   Word  7: 400F   NOEBTR NOEBTRB
